; Function Attrs: mustprogress uwtable
define noundef zeroext i1 @_ZN4base19GetCurrentDirectoryEPNS_8FilePathE(ptr noundef %0) local_unnamed_addr #0 personality ptr @__gxx_personality_v0 {
  %2 = alloca [4096 x i8], align 16
  %3 = alloca %"class.base::FilePath", align 8
  call void @llvm.lifetime.start.p0(i64 4096, ptr nonnull %2) #24
  call void @llvm.memset.p0.i64(ptr noundef nonnull align 16 dereferenceable(4096) %2, i8 0, i64 4096, i1 false)
  %4 = call ptr @getcwd(ptr noundef nonnull %2, i64 noundef 4096) #24
  %.not = icmp ne ptr %4, null
  br i1 %.not, label %5, label %11

5:                                                ; preds = %1
  call void @llvm.lifetime.start.p0(i64 32, ptr nonnull %3) #24
  %6 = call noundef i64 @strlen(ptr noundef nonnull dereferenceable(1) %2) #24
  call void @_ZN4base8FilePathC1ENS_16BasicStringPieceINSt7__cxx1112basic_stringIcSt11char_traitsIcESaIcEEEEE(ptr noundef nonnull align 8 dereferenceable(32) %3, ptr nonnull %2, i64 %6)
  %7 = invoke noundef nonnull align 8 dereferenceable(32) ptr @_ZN4base8FilePathaSERKS0_(ptr noundef nonnull align 8 dereferenceable(32) %0, ptr noundef nonnull align 8 dereferenceable(32) %3)
          to label %8 unwind label %9

8:                                                ; preds = %5
  call void @_ZN4base8FilePathD1Ev(ptr noundef nonnull align 8 dereferenceable(32) %3) #24
  call void @llvm.lifetime.end.p0(i64 32, ptr nonnull %3) #24
  br label %11

9:                                                ; preds = %5
  %10 = landingpad { ptr, i32 }
          cleanup
  call void @_ZN4base8FilePathD1Ev(ptr noundef nonnull align 8 dereferenceable(32) %3) #24
  call void @llvm.lifetime.end.p0(i64 32, ptr nonnull %3) #24
  call void @llvm.lifetime.end.p0(i64 4096, ptr nonnull %2) #24
  resume { ptr, i32 } %10

11:                                               ; preds = %1, %8
  call void @llvm.lifetime.end.p0(i64 4096, ptr nonnull %2) #24
  ret i1 %.not
}